target datalayout = "e-m:e-p270:32:32-p271:32:32-p272:64:64-i64:64-i128:128-f80:128-n8:16:32:64-S128"
target triple = "x86_64-pc-linux-gnu"

%struct.ossl_param_st = type { ptr, i32, ptr, i64, i64 }

@.str.53 = private unnamed_addr constant [31 x i8] c"../openssl/test/evp_kdf_test.c\00", align 1
@.str.71 = private unnamed_addr constant [5 x i8] c"salt\00", align 1
@.str.73 = private unnamed_addr constant [7 x i8] c"digest\00", align 1
@.str.78 = private unnamed_addr constant [5 x i8] c"mode\00", align 1
@.str.80 = private unnamed_addr constant [4 x i8] c"key\00", align 1
@.str.93 = private unnamed_addr constant [5 x i8] c"info\00", align 1
@.str.127 = private unnamed_addr constant [13 x i8] c"EXTRACT_ONLY\00", align 1

; Function Attrs: nounwind uwtable
define internal ptr @construct_hkdf_params(ptr noundef %0, ptr noundef %1, i64 noundef %2, ptr noundef %3, ptr noundef %4) #0 {
  %6 = alloca ptr, align 8
  %7 = alloca ptr, align 8
  %8 = alloca ptr, align 8
  %9 = alloca i64, align 8
  %10 = alloca ptr, align 8
  %11 = alloca ptr, align 8
  %12 = alloca ptr, align 8
  %13 = alloca ptr, align 8
  %14 = alloca i32, align 4
  %15 = alloca %struct.ossl_param_st, align 8
  %16 = alloca %struct.ossl_param_st, align 8
  %17 = alloca %struct.ossl_param_st, align 8
  %18 = alloca %struct.ossl_param_st, align 8
  %19 = alloca %struct.ossl_param_st, align 8
  %20 = alloca %struct.ossl_param_st, align 8
  store ptr %0, ptr %7, align 8, !tbaa !18
  store ptr %1, ptr %8, align 8, !tbaa !18
  store i64 %2, ptr %9, align 8, !tbaa !21
  store ptr %3, ptr %10, align 8, !tbaa !18
  store ptr %4, ptr %11, align 8, !tbaa !18
  call void @llvm.lifetime.start.p0(i64 8, ptr %12) #6
  %21 = call noalias ptr @CRYPTO_malloc(i64 noundef 200, ptr noundef @.str.53, i32 noundef 196)
  store ptr %21, ptr %12, align 8, !tbaa !13
  call void @llvm.lifetime.start.p0(i64 8, ptr %13) #6
  %22 = load ptr, ptr %12, align 8, !tbaa !13
  store ptr %22, ptr %13, align 8, !tbaa !13
  %23 = load ptr, ptr %12, align 8, !tbaa !13
  %24 = icmp eq ptr %23, null
  br i1 %24, label %25, label %26

25:                                               ; preds = %5
  store ptr null, ptr %6, align 8
  store i32 1, ptr %14, align 4
  br label %57

26:                                               ; preds = %5
  %27 = load ptr, ptr %7, align 8, !tbaa !18
  %28 = icmp ne ptr %27, null
  br i1 %28, label %29, label %33

29:                                               ; preds = %26
  %30 = load ptr, ptr %13, align 8, !tbaa !13
  %31 = getelementptr inbounds nuw %struct.ossl_param_st, ptr %30, i32 1
  store ptr %31, ptr %13, align 8, !tbaa !13
  call void @llvm.lifetime.start.p0(i64 40, ptr %15) #6
  %32 = load ptr, ptr %7, align 8, !tbaa !18
  call void @OSSL_PARAM_construct_utf8_string(ptr dead_on_unwind writable sret(%struct.ossl_param_st) align 8 %15, ptr noundef @.str.73, ptr noundef %32, i64 noundef 0)
  call void @llvm.memcpy.p0.p0.i64(ptr align 8 %30, ptr align 8 %15, i64 40, i1 false), !tbaa.struct !17
  call void @llvm.lifetime.end.p0(i64 40, ptr %15) #6
  br label %33

33:                                               ; preds = %29, %26
  %34 = load ptr, ptr %13, align 8, !tbaa !13
  %35 = getelementptr inbounds nuw %struct.ossl_param_st, ptr %34, i32 1
  store ptr %35, ptr %13, align 8, !tbaa !13
  call void @llvm.lifetime.start.p0(i64 40, ptr %16) #6
  %36 = load ptr, ptr %10, align 8, !tbaa !18
  %37 = load ptr, ptr %10, align 8, !tbaa !18
  %38 = call i64 @strlen(ptr noundef %37) #7
  call void @OSSL_PARAM_construct_octet_string(ptr dead_on_unwind writable sret(%struct.ossl_param_st) align 8 %16, ptr noundef @.str.71, ptr noundef %36, i64 noundef %38)
  call void @llvm.memcpy.p0.p0.i64(ptr align 8 %34, ptr align 8 %16, i64 40, i1 false), !tbaa.struct !17
  call void @llvm.lifetime.end.p0(i64 40, ptr %16) #6
  %39 = load ptr, ptr %13, align 8, !tbaa !13
  %40 = getelementptr inbounds nuw %struct.ossl_param_st, ptr %39, i32 1
  store ptr %40, ptr %13, align 8, !tbaa !13
  call void @llvm.lifetime.start.p0(i64 40, ptr %17) #6
  %41 = load ptr, ptr %8, align 8, !tbaa !18
  %42 = load i64, ptr %9, align 8, !tbaa !21
  call void @OSSL_PARAM_construct_octet_string(ptr dead_on_unwind writable sret(%struct.ossl_param_st) align 8 %17, ptr noundef @.str.80, ptr noundef %41, i64 noundef %42)
  call void @llvm.memcpy.p0.p0.i64(ptr align 8 %39, ptr align 8 %17, i64 40, i1 false), !tbaa.struct !17
  call void @llvm.lifetime.end.p0(i64 40, ptr %17) #6
  %43 = load ptr, ptr %11, align 8, !tbaa !18
  %44 = icmp ne ptr %43, null
  br i1 %44, label %45, label %51

45:                                               ; preds = %33
  %46 = load ptr, ptr %13, align 8, !tbaa !13
  %47 = getelementptr inbounds nuw %struct.ossl_param_st, ptr %46, i32 1
  store ptr %47, ptr %13, align 8, !tbaa !13
  call void @llvm.lifetime.start.p0(i64 40, ptr %18) #6
  %48 = load ptr, ptr %11, align 8, !tbaa !18
  %49 = load ptr, ptr %11, align 8, !tbaa !18
  %50 = call i64 @strlen(ptr noundef %49) #7
  call void @OSSL_PARAM_construct_octet_string(ptr dead_on_unwind writable sret(%struct.ossl_param_st) align 8 %18, ptr noundef @.str.93, ptr noundef %48, i64 noundef %50)
  call void @llvm.memcpy.p0.p0.i64(ptr align 8 %46, ptr align 8 %18, i64 40, i1 false), !tbaa.struct !17
  call void @llvm.lifetime.end.p0(i64 40, ptr %18) #6
  br label %54

51:                                               ; preds = %33
  %52 = load ptr, ptr %13, align 8, !tbaa !13
  %53 = getelementptr inbounds nuw %struct.ossl_param_st, ptr %52, i32 1
  store ptr %53, ptr %13, align 8, !tbaa !13
  call void @llvm.lifetime.start.p0(i64 40, ptr %19) #6
  call void @OSSL_PARAM_construct_utf8_string(ptr dead_on_unwind writable sret(%struct.ossl_param_st) align 8 %19, ptr noundef @.str.78, ptr noundef @.str.127, i64 noundef 0)
  call void @llvm.memcpy.p0.p0.i64(ptr align 8 %52, ptr align 8 %19, i64 40, i1 false), !tbaa.struct !17
  call void @llvm.lifetime.end.p0(i64 40, ptr %19) #6
  br label %54

54:                                               ; preds = %51, %45
  %55 = load ptr, ptr %13, align 8, !tbaa !13
  call void @llvm.lifetime.start.p0(i64 40, ptr %20) #6
  call void @OSSL_PARAM_construct_end(ptr dead_on_unwind writable sret(%struct.ossl_param_st) align 8 %20)
  call void @llvm.memcpy.p0.p0.i64(ptr align 8 %55, ptr align 8 %20, i64 40, i1 false), !tbaa.struct !17
  call void @llvm.lifetime.end.p0(i64 40, ptr %20) #6
  %56 = load ptr, ptr %12, align 8, !tbaa !13
  store ptr %56, ptr %6, align 8
  store i32 1, ptr %14, align 4
  br label %57

57:                                               ; preds = %54, %25
  call void @llvm.lifetime.end.p0(i64 8, ptr %13) #6
  call void @llvm.lifetime.end.p0(i64 8, ptr %12) #6
  %58 = load ptr, ptr %6, align 8
  ret ptr %58
}