; Function Attrs: nounwind uwtable
define internal fastcc noalias ptr @construct_hkdf_params(ptr noundef %0, ptr noundef %1, i64 noundef range(i64 0, 7) %2, ptr noundef %3, ptr noundef %4) unnamed_addr #0 {
  %6 = alloca %struct.ossl_param_st, align 8
  %7 = alloca %struct.ossl_param_st, align 8
  %8 = alloca %struct.ossl_param_st, align 8
  %9 = alloca %struct.ossl_param_st, align 8
  %10 = alloca %struct.ossl_param_st, align 8
  %11 = alloca %struct.ossl_param_st, align 8
  %12 = tail call noalias ptr @CRYPTO_malloc(i64 noundef 200, ptr noundef nonnull @.str.53, i32 noundef 196) #6
  %13 = icmp eq ptr %12, null
  br i1 %13, label %25, label %14

14:                                               ; preds = %5
  %.not = icmp eq ptr %0, null
  br i1 %.not, label %17, label %15

15:                                               ; preds = %14
  %16 = getelementptr inbounds nuw i8, ptr %12, i64 40
  call void @llvm.lifetime.start.p0(i64 40, ptr nonnull %6) #6
  call void @OSSL_PARAM_construct_utf8_string(ptr dead_on_unwind nonnull writable sret(%struct.ossl_param_st) align 8 %6, ptr noundef nonnull @.str.73, ptr noundef nonnull %0, i64 noundef 0) #6
  call void @llvm.memcpy.p0.p0.i64(ptr noundef nonnull align 8 dereferenceable(40) %12, ptr noundef nonnull align 8 dereferenceable(40) %6, i64 40, i1 false), !tbaa.struct !10
  call void @llvm.lifetime.end.p0(i64 40, ptr nonnull %6) #6
  br label %17

17:                                               ; preds = %15, %14
  %.0 = phi ptr [ %16, %15 ], [ %12, %14 ]
  %18 = getelementptr inbounds nuw i8, ptr %.0, i64 40
  call void @llvm.lifetime.start.p0(i64 40, ptr nonnull %7) #6
  %19 = call i64 @strlen(ptr noundef nonnull dereferenceable(1) %3) #7
  call void @OSSL_PARAM_construct_octet_string(ptr dead_on_unwind nonnull writable sret(%struct.ossl_param_st) align 8 %7, ptr noundef nonnull @.str.71, ptr noundef nonnull %3, i64 noundef %19) #6
  call void @llvm.memcpy.p0.p0.i64(ptr noundef nonnull align 8 dereferenceable(40) %.0, ptr noundef nonnull align 8 dereferenceable(40) %7, i64 40, i1 false), !tbaa.struct !10
  call void @llvm.lifetime.end.p0(i64 40, ptr nonnull %7) #6
  %20 = getelementptr inbounds nuw i8, ptr %.0, i64 80
  call void @llvm.lifetime.start.p0(i64 40, ptr nonnull %8) #6
  call void @OSSL_PARAM_construct_octet_string(ptr dead_on_unwind nonnull writable sret(%struct.ossl_param_st) align 8 %8, ptr noundef nonnull @.str.80, ptr noundef %1, i64 noundef %2) #6
  call void @llvm.memcpy.p0.p0.i64(ptr noundef nonnull align 8 dereferenceable(40) %18, ptr noundef nonnull align 8 dereferenceable(40) %8, i64 40, i1 false), !tbaa.struct !10
  call void @llvm.lifetime.end.p0(i64 40, ptr nonnull %8) #6
  %.not22 = icmp eq ptr %4, null
  br i1 %.not22, label %23, label %21

21:                                               ; preds = %17
  call void @llvm.lifetime.start.p0(i64 40, ptr nonnull %9) #6
  %22 = call i64 @strlen(ptr noundef nonnull dereferenceable(1) %4) #7
  call void @OSSL_PARAM_construct_octet_string(ptr dead_on_unwind nonnull writable sret(%struct.ossl_param_st) align 8 %9, ptr noundef nonnull @.str.93, ptr noundef nonnull %4, i64 noundef %22) #6
  call void @llvm.memcpy.p0.p0.i64(ptr noundef nonnull align 8 dereferenceable(40) %20, ptr noundef nonnull align 8 dereferenceable(40) %9, i64 40, i1 false), !tbaa.struct !10
  call void @llvm.lifetime.end.p0(i64 40, ptr nonnull %9) #6
  br label %24

23:                                               ; preds = %17
  call void @llvm.lifetime.start.p0(i64 40, ptr nonnull %10) #6
  call void @OSSL_PARAM_construct_utf8_string(ptr dead_on_unwind nonnull writable sret(%struct.ossl_param_st) align 8 %10, ptr noundef nonnull @.str.78, ptr noundef nonnull @.str.127, i64 noundef 0) #6
  call void @llvm.memcpy.p0.p0.i64(ptr noundef nonnull align 8 dereferenceable(40) %20, ptr noundef nonnull align 8 dereferenceable(40) %10, i64 40, i1 false), !tbaa.struct !10
  call void @llvm.lifetime.end.p0(i64 40, ptr nonnull %10) #6
  br label %24

24:                                               ; preds = %23, %21
  %.1 = getelementptr inbounds nuw i8, ptr %.0, i64 120
  call void @llvm.lifetime.start.p0(i64 40, ptr nonnull %11) #6
  call void @OSSL_PARAM_construct_end(ptr dead_on_unwind nonnull writable sret(%struct.ossl_param_st) align 8 %11) #6
  call void @llvm.memcpy.p0.p0.i64(ptr noundef nonnull align 8 dereferenceable(40) %.1, ptr noundef nonnull align 8 dereferenceable(40) %11, i64 40, i1 false), !tbaa.struct !10
  call void @llvm.lifetime.end.p0(i64 40, ptr nonnull %11) #6
  br label %25

25:                                               ; preds = %5, %24
  ret ptr %12
}